target datalayout = "e-m:e-p270:32:32-p271:32:32-p272:64:64-i64:64-i128:128-f80:128-n8:16:32:64-S128"
target triple = "x86_64-pc-linux-gnu"

%struct.mi_memid_s = type { %union.anon, i8, i8, i8, i32 }
%union.anon = type { %struct.mi_memid_os_info }
%struct.mi_memid_os_info = type { ptr, i64 }
%struct.mi_arena_s = type { i32, %struct.mi_memid_s, ptr, i64, i64, i64, %struct.mi_memid_s, i32, i8, i8, %union.pthread_mutex_t, i64, i64, ptr, ptr, ptr, ptr, [1 x i64] }
%union.pthread_mutex_t = type { %struct.__pthread_mutex_s }
%struct.__pthread_mutex_s = type { i32, i32, i32, i32, i32, i16, i16, %struct.__pthread_internal_list }
%struct.__pthread_internal_list = type { ptr, ptr }

@mi_arenas = internal global [132 x ptr] zeroinitializer, align 64

; Function Attrs: inlinehint nounwind uwtable
define internal i64 @_mi_divide_up(i64 noundef %0, i64 noundef %1) #4 {
  %3 = alloca i64, align 8
  %4 = alloca i64, align 8
  store i64 %0, ptr %3, align 8, !tbaa !15
  store i64 %1, ptr %4, align 8, !tbaa !15
  %5 = load i64, ptr %4, align 8, !tbaa !15
  %6 = icmp eq i64 %5, 0
  br i1 %6, label %7, label %9

7:                                                ; preds = %2
  %8 = load i64, ptr %3, align 8, !tbaa !15
  br label %16

9:                                                ; preds = %2
  %10 = load i64, ptr %3, align 8, !tbaa !15
  %11 = load i64, ptr %4, align 8, !tbaa !15
  %12 = add i64 %10, %11
  %13 = sub i64 %12, 1
  %14 = load i64, ptr %4, align 8, !tbaa !15
  %15 = udiv i64 %13, %14
  br label %16

16:                                               ; preds = %9, %7
  %17 = phi i64 [ %8, %7 ], [ %15, %9 ]
  ret i64 %17
}

; Function Attrs: nounwind uwtable
define hidden i32 @_mi_arena_id_none() #0 {
  ret i32 0
}

; Function Attrs: nounwind uwtable
define internal zeroext i1 @mi_arena_id_is_suitable(i32 noundef %0, i1 noundef zeroext %1, i32 noundef %2) #0 {
  %4 = alloca i32, align 4
  %5 = alloca i8, align 1
  %6 = alloca i32, align 4
  store i32 %0, ptr %4, align 4, !tbaa !52
  %7 = zext i1 %1 to i8
  store i8 %7, ptr %5, align 1, !tbaa !21
  store i32 %2, ptr %6, align 4, !tbaa !52
  %8 = load i8, ptr %5, align 1, !tbaa !21, !range !22, !noundef !23
  %9 = trunc i8 %8 to i1
  br i1 %9, label %14, label %10

10:                                               ; preds = %3
  %11 = load i32, ptr %6, align 4, !tbaa !52
  %12 = call i32 @_mi_arena_id_none() #12
  %13 = icmp eq i32 %11, %12
  br i1 %13, label %18, label %14

14:                                               ; preds = %10, %3
  %15 = load i32, ptr %4, align 4, !tbaa !52
  %16 = load i32, ptr %6, align 4, !tbaa !52
  %17 = icmp eq i32 %15, %16
  br label %18

18:                                               ; preds = %14, %10
  %19 = phi i1 [ true, %10 ], [ %17, %14 ]
  ret i1 %19
}

; Function Attrs: nounwind uwtable
define hidden ptr @mi_arena_from_index(i64 noundef %0) #0 {
  %2 = alloca i64, align 8
  %3 = alloca ptr, align 8
  store i64 %0, ptr %2, align 8, !tbaa !15
  %4 = load i64, ptr %2, align 8, !tbaa !15
  %5 = getelementptr inbounds nuw [132 x ptr], ptr @mi_arenas, i64 0, i64 %4
  %6 = load atomic i64, ptr %5 acquire, align 8
  store i64 %6, ptr %3, align 8
  %7 = load ptr, ptr %3, align 8, !tbaa !16
  ret ptr %7
}

; Function Attrs: nounwind uwtable
define hidden i64 @mi_arena_id_index(i32 noundef %0) #0 {
  %2 = alloca i32, align 4
  store i32 %0, ptr %2, align 4, !tbaa !52
  %3 = load i32, ptr %2, align 4, !tbaa !52
  %4 = icmp sle i32 %3, 0
  br i1 %4, label %5, label %6

5:                                                ; preds = %1
  br label %9

6:                                                ; preds = %1
  %7 = load i32, ptr %2, align 4, !tbaa !52
  %8 = sub nsw i32 %7, 1
  br label %9

9:                                                ; preds = %6, %5
  %10 = phi i32 [ 132, %5 ], [ %8, %6 ]
  %11 = sext i32 %10 to i64
  ret i64 %11
}

; Function Attrs: nounwind uwtable
define internal i64 @mi_block_count_of_size(i64 noundef %0) #0 {
  %2 = alloca i64, align 8
  store i64 %0, ptr %2, align 8, !tbaa !15
  %3 = load i64, ptr %2, align 8, !tbaa !15
  %4 = call i64 @_mi_divide_up(i64 noundef %3, i64 noundef 4194304) #12
  ret i64 %4
}

; Function Attrs: nounwind uwtable
define internal ptr @mi_arena_try_alloc_at_id(i32 noundef %0, i1 noundef zeroext %1, i32 noundef %2, i64 noundef %3, i64 noundef %4, i1 noundef zeroext %5, i1 noundef zeroext %6, i32 noundef %7, ptr noundef %8) #0 {
  %10 = alloca ptr, align 8
  %11 = alloca i32, align 4
  %12 = alloca i8, align 1
  %13 = alloca i32, align 4
  %14 = alloca i64, align 8
  %15 = alloca i64, align 8
  %16 = alloca i8, align 1
  %17 = alloca i8, align 1
  %18 = alloca i32, align 4
  %19 = alloca ptr, align 8
  %20 = alloca i64, align 8
  %21 = alloca i64, align 8
  %22 = alloca ptr, align 8
  %23 = alloca i32, align 4
  %24 = alloca i8, align 1
  %25 = alloca ptr, align 8
  store i32 %0, ptr %11, align 4, !tbaa !52
  %26 = zext i1 %1 to i8
  store i8 %26, ptr %12, align 1, !tbaa !21
  store i32 %2, ptr %13, align 4, !tbaa !52
  store i64 %3, ptr %14, align 8, !tbaa !15
  store i64 %4, ptr %15, align 8, !tbaa !15
  %27 = zext i1 %5 to i8
  store i8 %27, ptr %16, align 1, !tbaa !21
  %28 = zext i1 %6 to i8
  store i8 %28, ptr %17, align 1, !tbaa !21
  store i32 %7, ptr %18, align 4, !tbaa !52
  store ptr %8, ptr %19, align 8, !tbaa !60
  call void @llvm.lifetime.start.p0(i64 8, ptr %20) #13
  %29 = load i64, ptr %14, align 8, !tbaa !15
  %30 = call i64 @mi_block_count_of_size(i64 noundef %29) #12
  store i64 %30, ptr %20, align 8, !tbaa !15
  call void @llvm.lifetime.start.p0(i64 8, ptr %21) #13
  %31 = load i32, ptr %11, align 4, !tbaa !52
  %32 = call i64 @mi_arena_id_index(i32 noundef %31) #12
  store i64 %32, ptr %21, align 8, !tbaa !15
  call void @llvm.lifetime.start.p0(i64 8, ptr %22) #13
  %33 = load i64, ptr %21, align 8, !tbaa !15
  %34 = call ptr @mi_arena_from_index(i64 noundef %33) #12
  store ptr %34, ptr %22, align 8, !tbaa !16
  %35 = load ptr, ptr %22, align 8, !tbaa !16
  %36 = icmp eq ptr %35, null
  br i1 %36, label %37, label %38

37:                                               ; preds = %9
  store ptr null, ptr %10, align 8
  store i32 1, ptr %23, align 4
  br label %104

38:                                               ; preds = %9
  %39 = load i8, ptr %17, align 1, !tbaa !21, !range !22, !noundef !23
  %40 = trunc i8 %39 to i1
  br i1 %40, label %47, label %41

41:                                               ; preds = %38
  %42 = load ptr, ptr %22, align 8, !tbaa !16
  %43 = getelementptr inbounds nuw %struct.mi_arena_s, ptr %42, i32 0, i32 9
  %44 = load i8, ptr %43, align 1, !tbaa !71, !range !22, !noundef !23
  %45 = trunc i8 %44 to i1
  br i1 %45, label %46, label %47

46:                                               ; preds = %41
  store ptr null, ptr %10, align 8
  store i32 1, ptr %23, align 4
  br label %104

47:                                               ; preds = %41, %38
  %48 = load ptr, ptr %22, align 8, !tbaa !16
  %49 = getelementptr inbounds nuw %struct.mi_arena_s, ptr %48, i32 0, i32 0
  %50 = load i32, ptr %49, align 8, !tbaa !72
  %51 = load ptr, ptr %22, align 8, !tbaa !16
  %52 = getelementptr inbounds nuw %struct.mi_arena_s, ptr %51, i32 0, i32 8
  %53 = load i8, ptr %52, align 4, !tbaa !73, !range !22, !noundef !23
  %54 = trunc i8 %53 to i1
  %55 = load i32, ptr %18, align 4, !tbaa !52
  %56 = call zeroext i1 @mi_arena_id_is_suitable(i32 noundef %50, i1 noundef zeroext %54, i32 noundef %55) #12
  br i1 %56, label %58, label %57

57:                                               ; preds = %47
  store ptr null, ptr %10, align 8
  store i32 1, ptr %23, align 4
  br label %104

58:                                               ; preds = %47
  %59 = load i32, ptr %18, align 4, !tbaa !52
  %60 = call i32 @_mi_arena_id_none() #12
  %61 = icmp eq i32 %59, %60
  br i1 %61, label %62, label %95

62:                                               ; preds = %58
  call void @llvm.lifetime.start.p0(i64 1, ptr %24) #13
  %63 = load i32, ptr %13, align 4, !tbaa !52
  %64 = icmp slt i32 %63, 0
  br i1 %64, label %76, label %65

65:                                               ; preds = %62
  %66 = load ptr, ptr %22, align 8, !tbaa !16
  %67 = getelementptr inbounds nuw %struct.mi_arena_s, ptr %66, i32 0, i32 7
  %68 = load i32, ptr %67, align 8, !tbaa !74
  %69 = icmp slt i32 %68, 0
  br i1 %69, label %76, label %70

70:                                               ; preds = %65
  %71 = load ptr, ptr %22, align 8, !tbaa !16
  %72 = getelementptr inbounds nuw %struct.mi_arena_s, ptr %71, i32 0, i32 7
  %73 = load i32, ptr %72, align 8, !tbaa !74
  %74 = load i32, ptr %13, align 4, !tbaa !52
  %75 = icmp eq i32 %73, %74
  br label %76

76:                                               ; preds = %70, %65, %62
  %77 = phi i1 [ true, %65 ], [ true, %62 ], [ %75, %70 ]
  %78 = zext i1 %77 to i8
  store i8 %78, ptr %24, align 1, !tbaa !21
  %79 = load i8, ptr %12, align 1, !tbaa !21, !range !22, !noundef !23
  %80 = trunc i8 %79 to i1
  br i1 %80, label %81, label %86

81:                                               ; preds = %76
  %82 = load i8, ptr %24, align 1, !tbaa !21, !range !22, !noundef !23
  %83 = trunc i8 %82 to i1
  br i1 %83, label %85, label %84

84:                                               ; preds = %81
  store ptr null, ptr %10, align 8
  store i32 1, ptr %23, align 4
  br label %92

85:                                               ; preds = %81
  br label %91

86:                                               ; preds = %76
  %87 = load i8, ptr %24, align 1, !tbaa !21, !range !22, !noundef !23
  %88 = trunc i8 %87 to i1
  br i1 %88, label %89, label %90

89:                                               ; preds = %86
  store ptr null, ptr %10, align 8
  store i32 1, ptr %23, align 4
  br label %92

90:                                               ; preds = %86
  br label %91

91:                                               ; preds = %90, %85
  store i32 0, ptr %23, align 4
  br label %92

92:                                               ; preds = %91, %89, %84
  call void @llvm.lifetime.end.p0(i64 1, ptr %24) #13
  %93 = load i32, ptr %23, align 4
  switch i32 %93, label %104 [
    i32 0, label %94
  ]

94:                                               ; preds = %92
  br label %95

95:                                               ; preds = %94, %58
  call void @llvm.lifetime.start.p0(i64 8, ptr %25) #13
  %96 = load ptr, ptr %22, align 8, !tbaa !16
  %97 = load i64, ptr %21, align 8, !tbaa !15
  %98 = load i64, ptr %20, align 8, !tbaa !15
  %99 = load i8, ptr %16, align 1, !tbaa !21, !range !22, !noundef !23
  %100 = trunc i8 %99 to i1
  %101 = load ptr, ptr %19, align 8, !tbaa !60
  %102 = call ptr @mi_arena_try_alloc_at(ptr noundef %96, i64 noundef %97, i64 noundef %98, i1 noundef zeroext %100, ptr noundef %101) #12
  store ptr %102, ptr %25, align 8, !tbaa !53
  %103 = load ptr, ptr %25, align 8, !tbaa !53
  store ptr %103, ptr %10, align 8
  store i32 1, ptr %23, align 4
  call void @llvm.lifetime.end.p0(i64 8, ptr %25) #13
  br label %104

104:                                              ; preds = %95, %92, %57, %46, %37
  call void @llvm.lifetime.end.p0(i64 8, ptr %22) #13
  call void @llvm.lifetime.end.p0(i64 8, ptr %21) #13
  call void @llvm.lifetime.end.p0(i64 8, ptr %20) #13
  %105 = load ptr, ptr %10, align 8
  ret ptr %105
}