; Function Attrs: nounwind uwtable
define internal fastcc ptr @mi_arena_try_alloc_at_id(i32 noundef %0, i1 noundef zeroext %1, i32 noundef %2, i64 noundef range(i64 2097152, 0) %3, i1 noundef zeroext %4, i1 noundef zeroext %5, i32 noundef %6, ptr noundef writeonly captures(none) %7) unnamed_addr #0 {
  %9 = add i64 %3, 4194303
  %10 = lshr i64 %9, 22
  %11 = icmp slt i32 %0, 1
  %12 = add nsw i32 %0, -1
  %13 = select i1 %11, i32 132, i32 %12
  %14 = zext nneg i32 %13 to i64
  %15 = getelementptr inbounds nuw [132 x ptr], ptr @mi_arenas, i64 0, i64 %14
  %16 = load atomic i64, ptr %15 acquire, align 8
  %17 = inttoptr i64 %16 to ptr
  %18 = icmp eq i64 %16, 0
  br i1 %18, label %.thread29, label %19

19:                                               ; preds = %8
  br i1 %5, label %24, label %20

20:                                               ; preds = %19
  %21 = getelementptr inbounds nuw i8, ptr %17, i64 93
  %22 = load i8, ptr %21, align 1, !tbaa !52, !range !26, !noundef !27
  %23 = trunc nuw i8 %22 to i1
  br i1 %23, label %.thread29, label %24

24:                                               ; preds = %20, %19
  %25 = load i32, ptr %17, align 8, !tbaa !53
  %26 = getelementptr inbounds nuw i8, ptr %17, i64 92
  %27 = load i8, ptr %26, align 4, !tbaa !54, !range !26, !noundef !27
  %28 = trunc nuw i8 %27 to i1
  %.not.i = xor i1 %28, true
  %29 = icmp eq i32 %6, 0
  %or.cond.i = and i1 %29, %.not.i
  %30 = icmp eq i32 %25, %6
  %spec.select.i = or i1 %30, %or.cond.i
  br i1 %spec.select.i, label %31, label %.thread29

31:                                               ; preds = %24
  br i1 %29, label %32, label %.critedge

32:                                               ; preds = %31
  %33 = icmp slt i32 %2, 0
  br i1 %33, label %.thread, label %34

34:                                               ; preds = %32
  %35 = getelementptr inbounds nuw i8, ptr %17, i64 88
  %36 = load i32, ptr %35, align 8, !tbaa !55
  %37 = icmp slt i32 %36, 0
  %38 = icmp eq i32 %36, %2
  %spec.select = or i1 %37, %38
  br i1 %1, label %39, label %40

.thread:                                          ; preds = %32
  br i1 %1, label %.critedge, label %.thread29

39:                                               ; preds = %34
  br i1 %spec.select, label %.critedge, label %.thread29

40:                                               ; preds = %34
  br i1 %spec.select, label %.thread29, label %.critedge

.critedge:                                        ; preds = %.thread, %39, %40, %31
  %41 = tail call fastcc ptr @mi_arena_try_alloc_at(ptr noundef %17, i64 noundef %10, i1 noundef zeroext %4, ptr noundef %7) #19
  br label %.thread29

.thread29:                                        ; preds = %.thread, %39, %40, %24, %20, %8, %.critedge
  %.0 = phi ptr [ %41, %.critedge ], [ null, %8 ], [ null, %20 ], [ null, %24 ], [ null, %40 ], [ null, %39 ], [ null, %.thread ]
  ret ptr %.0
}